target datalayout = "e-m:e-p270:32:32-p271:32:32-p272:64:64-i64:64-i128:128-f80:128-n8:16:32:64-S128"
target triple = "x86_64-pc-linux-gnu"

%struct.TestConfig = type <{ i32, i8, i8, i8, i8, %"class.std::__cxx11::basic_string", %"class.std::__cxx11::basic_string", %"class.std::__cxx11::basic_string", %"class.std::__cxx11::basic_string", %"class.std::__cxx11::basic_string", i8, [7 x i8], %"class.std::__cxx11::basic_string", %"class.std::__cxx11::basic_string", i8, [7 x i8], %"class.std::__cxx11::basic_string", i8, i8, i8, i8, i8, i8, i8, i8, %"class.std::__cxx11::basic_string", %"class.std::__cxx11::basic_string", i8, [7 x i8], %"class.std::__cxx11::basic_string", %"class.std::__cxx11::basic_string", %"class.std::__cxx11::basic_string", %"class.std::__cxx11::basic_string", %"class.std::__cxx11::basic_string", i8, i8, i8, [5 x i8], %"class.std::__cxx11::basic_string", %"class.std::__cxx11::basic_string", %"class.std::__cxx11::basic_string", i8, [7 x i8], %"class.std::__cxx11::basic_string", i8, [7 x i8], %"class.std::__cxx11::basic_string", i32, i32, i32, i8, i8, i8, i8, i8, i8, [6 x i8], %"class.std::__cxx11::basic_string", %"class.std::__cxx11::basic_string", %"class.std::__cxx11::basic_string", i8, [3 x i8], i32, %"class.std::__cxx11::basic_string", %"class.std::__cxx11::basic_string", i8, i8, i8, i8, i8, i8, i8, i8, i8, i8, [6 x i8], %"class.std::__cxx11::basic_string", i8, i8, i8, i8, i8, [3 x i8], %"class.std::__cxx11::basic_string", i32, i8, i8, i8, i8, i32, i8, i8, i8, i8, i32, i8, [3 x i8] }>
%"class.std::__cxx11::basic_string" = type { %"struct.std::__cxx11::basic_string<char>::_Alloc_hider", i64, %union.anon }
%"struct.std::__cxx11::basic_string<char>::_Alloc_hider" = type { ptr }
%union.anon = type { i64, [8 x i8] }
%"class.std::unique_ptr.2" = type { %"struct.std::__uniq_ptr_data.3" }
%"struct.std::__uniq_ptr_data.3" = type { %"class.std::__uniq_ptr_impl.4" }
%"class.std::__uniq_ptr_impl.4" = type { %"class.std::tuple.5" }
%"class.std::tuple.5" = type { %"struct.std::_Tuple_impl.6" }
%"struct.std::_Tuple_impl.6" = type { %"struct.std::_Head_base.9" }
%"struct.std::_Head_base.9" = type { ptr }
%"class.std::unique_ptr.10" = type { %"struct.std::__uniq_ptr_data.11" }
%"struct.std::__uniq_ptr_data.11" = type { %"class.std::__uniq_ptr_impl.12" }
%"class.std::__uniq_ptr_impl.12" = type { %"class.std::tuple.13" }
%"class.std::tuple.13" = type { %"struct.std::_Tuple_impl.14" }
%"struct.std::_Tuple_impl.14" = type { %"struct.std::_Head_base.17" }
%"struct.std::_Head_base.17" = type { ptr }
%"class.std::vector" = type { %"struct.std::_Vector_base" }
%"struct.std::_Vector_base" = type { %"struct.std::_Vector_base<unsigned char, std::allocator<unsigned char>>::_Vector_impl" }
%"struct.std::_Vector_base<unsigned char, std::allocator<unsigned char>>::_Vector_impl" = type { %"struct.std::_Vector_base<unsigned char, std::allocator<unsigned char>>::_Vector_impl_data" }
%"struct.std::_Vector_base<unsigned char, std::allocator<unsigned char>>::_Vector_impl_data" = type { ptr, ptr, ptr }
%struct.TestState = type <{ ptr, %struct.timeval, %struct.timeval, %"class.std::unique_ptr.10", i8, [7 x i8], %"class.std::unique_ptr.2", %"class.std::unique_ptr.2", i8, i8, [6 x i8], %"class.std::unique_ptr.10", %"class.std::vector", i32, i8, [3 x i8] }>
%struct.timeval = type { i64, i64 }

@_ZL14g_config_index = internal global i32 0, align 4
@_ZL13g_state_index = internal global i32 0, align 4
@stderr = external global ptr, align 8
@.str.41 = private unnamed_addr constant [23 x i8] c"Error retransmitting.\0A\00", align 1

; Function Attrs: mustprogress nounwind uwtable
define linkonce_odr hidden noundef nonnull align 8 dereferenceable(8) ptr @_ZNSt10_Head_baseILm0EP11evp_pkey_stLb0EE7_M_headERKS2_(ptr noundef nonnull align 8 dereferenceable(8) %0) #4 comdat align 2 {
  %2 = alloca ptr, align 8
  store ptr %0, ptr %2, align 8, !tbaa !181
  %3 = load ptr, ptr %2, align 8, !tbaa !181
  %4 = getelementptr inbounds nuw %"struct.std::_Head_base.17", ptr %3, i32 0, i32 0
  ret ptr %4
}

; Function Attrs: mustprogress nounwind uwtable
define linkonce_odr hidden noundef nonnull align 8 dereferenceable(8) ptr @_ZNSt11_Tuple_implILm0EJP11evp_pkey_st14OpenSSLDeleterIS0_XadL_Z13EVP_PKEY_freeEEEEE7_M_headERKS4_(ptr noundef nonnull align 8 dereferenceable(8) %0) #4 comdat align 2 {
  %2 = alloca ptr, align 8
  store ptr %0, ptr %2, align 8, !tbaa !179
  %3 = load ptr, ptr %2, align 8, !tbaa !179
  %4 = call noundef nonnull align 8 dereferenceable(8) ptr @_ZNSt10_Head_baseILm0EP11evp_pkey_stLb0EE7_M_headERKS2_(ptr noundef nonnull align 8 dereferenceable(8) %3) #18
  ret ptr %4
}

; Function Attrs: mustprogress nounwind uwtable
define linkonce_odr hidden noundef nonnull align 8 dereferenceable(8) ptr @_ZSt12__get_helperILm0EP11evp_pkey_stJ14OpenSSLDeleterIS0_XadL_Z13EVP_PKEY_freeEEEEERKT0_RKSt11_Tuple_implIXT_EJS4_DpT1_EE(ptr noundef nonnull align 8 dereferenceable(8) %0) #4 comdat {
  %2 = alloca ptr, align 8
  store ptr %0, ptr %2, align 8, !tbaa !179
  %3 = load ptr, ptr %2, align 8, !tbaa !179
  %4 = call noundef nonnull align 8 dereferenceable(8) ptr @_ZNSt11_Tuple_implILm0EJP11evp_pkey_st14OpenSSLDeleterIS0_XadL_Z13EVP_PKEY_freeEEEEE7_M_headERKS4_(ptr noundef nonnull align 8 dereferenceable(8) %3) #18
  ret ptr %4
}

; Function Attrs: mustprogress nounwind uwtable
define linkonce_odr hidden noundef nonnull align 8 dereferenceable(8) ptr @_ZSt3getILm0EJP11evp_pkey_st14OpenSSLDeleterIS0_XadL_Z13EVP_PKEY_freeEEEEERKNSt13tuple_elementIXT_ESt5tupleIJDpT0_EEE4typeERKS8_(ptr noundef nonnull align 8 dereferenceable(8) %0) #4 comdat {
  %2 = alloca ptr, align 8
  store ptr %0, ptr %2, align 8, !tbaa !177
  %3 = load ptr, ptr %2, align 8, !tbaa !177
  %4 = call noundef nonnull align 8 dereferenceable(8) ptr @_ZSt12__get_helperILm0EP11evp_pkey_stJ14OpenSSLDeleterIS0_XadL_Z13EVP_PKEY_freeEEEEERKT0_RKSt11_Tuple_implIXT_EJS4_DpT1_EE(ptr noundef nonnull align 8 dereferenceable(8) %3) #18
  ret ptr %4
}

; Function Attrs: mustprogress nounwind uwtable
define linkonce_odr hidden noundef ptr @_ZNKSt15__uniq_ptr_implI11evp_pkey_st14OpenSSLDeleterIS0_XadL_Z13EVP_PKEY_freeEEEE6_M_ptrEv(ptr noundef nonnull align 8 dereferenceable(8) %0) #4 comdat align 2 {
  %2 = alloca ptr, align 8
  store ptr %0, ptr %2, align 8, !tbaa !173
  %3 = load ptr, ptr %2, align 8
  %4 = getelementptr inbounds nuw %"class.std::__uniq_ptr_impl.12", ptr %3, i32 0, i32 0
  %5 = call noundef nonnull align 8 dereferenceable(8) ptr @_ZSt3getILm0EJP11evp_pkey_st14OpenSSLDeleterIS0_XadL_Z13EVP_PKEY_freeEEEEERKNSt13tuple_elementIXT_ESt5tupleIJDpT0_EEE4typeERKS8_(ptr noundef nonnull align 8 dereferenceable(8) %4) #18
  %6 = load ptr, ptr %5, align 8, !tbaa !165
  ret ptr %6
}

; Function Attrs: mustprogress nounwind uwtable
define linkonce_odr hidden noundef ptr @_ZNKSt10unique_ptrI11evp_pkey_st14OpenSSLDeleterIS0_XadL_Z13EVP_PKEY_freeEEEE3getEv(ptr noundef nonnull align 8 dereferenceable(8) %0) #4 comdat align 2 {
  %2 = alloca ptr, align 8
  store ptr %0, ptr %2, align 8, !tbaa !161
  %3 = load ptr, ptr %2, align 8
  %4 = getelementptr inbounds nuw %"class.std::unique_ptr.10", ptr %3, i32 0, i32 0
  %5 = call noundef ptr @_ZNKSt15__uniq_ptr_implI11evp_pkey_st14OpenSSLDeleterIS0_XadL_Z13EVP_PKEY_freeEEEE6_M_ptrEv(ptr noundef nonnull align 8 dereferenceable(8) %4) #18
  ret ptr %5
}

; Function Attrs: mustprogress nounwind uwtable
define linkonce_odr hidden noundef zeroext i1 @_ZNKSt10unique_ptrI11evp_pkey_st14OpenSSLDeleterIS0_XadL_Z13EVP_PKEY_freeEEEEcvbEv(ptr noundef nonnull align 8 dereferenceable(8) %0) #4 comdat align 2 {
  %2 = alloca ptr, align 8
  store ptr %0, ptr %2, align 8, !tbaa !161
  %3 = load ptr, ptr %2, align 8
  %4 = call noundef ptr @_ZNKSt10unique_ptrI11evp_pkey_st14OpenSSLDeleterIS0_XadL_Z13EVP_PKEY_freeEEEE3getEv(ptr noundef nonnull align 8 dereferenceable(8) %3) #18
  %5 = icmp eq ptr %4, null
  %6 = select i1 %5, i1 false, i1 true
  ret i1 %6
}

; Function Attrs: mustprogress uwtable
define internal noundef ptr @_ZL12GetTestStatePK6ssl_st(ptr noundef %0) #6 {
  %2 = alloca ptr, align 8
  store ptr %0, ptr %2, align 8, !tbaa !204
  %3 = load ptr, ptr %2, align 8, !tbaa !204
  %4 = load i32, ptr @_ZL13g_state_index, align 4, !tbaa !6
  %5 = call ptr @SSL_get_ex_data(ptr noundef %3, i32 noundef %4)
  ret ptr %5
}

; Function Attrs: mustprogress uwtable
define internal noundef ptr @_ZL12GetConfigPtrPK6ssl_st(ptr noundef %0) #6 {
  %2 = alloca ptr, align 8
  store ptr %0, ptr %2, align 8, !tbaa !204
  %3 = load ptr, ptr %2, align 8, !tbaa !204
  %4 = load i32, ptr @_ZL14g_config_index, align 4, !tbaa !6
  %5 = call ptr @SSL_get_ex_data(ptr noundef %3, i32 noundef %4)
  ret ptr %5
}

; Function Attrs: mustprogress uwtable
define internal noundef zeroext i1 @_ZL10RetryAsyncP6ssl_sti(ptr noundef %0, i32 noundef %1) #6 {
  %3 = alloca i1, align 1
  %4 = alloca ptr, align 8
  %5 = alloca i32, align 4
  %6 = alloca ptr, align 8
  %7 = alloca ptr, align 8
  %8 = alloca i32, align 4
  %9 = alloca i32, align 4
  %10 = alloca %"class.std::unique_ptr.10", align 8
  store ptr %0, ptr %4, align 8, !tbaa !204
  store i32 %1, ptr %5, align 4, !tbaa !6
  %11 = load i32, ptr %5, align 4, !tbaa !6
  %12 = icmp sge i32 %11, 0
  br i1 %12, label %13, label %14

13:                                               ; preds = %2
  store i1 false, ptr %3, align 1
  br label %135

14:                                               ; preds = %2
  call void @llvm.lifetime.start.p0(i64 8, ptr %6) #18
  %15 = load ptr, ptr %4, align 8, !tbaa !204
  %16 = call noundef ptr @_ZL12GetConfigPtrPK6ssl_st(ptr noundef %15)
  store ptr %16, ptr %6, align 8, !tbaa !29
  call void @llvm.lifetime.start.p0(i64 8, ptr %7) #18
  %17 = load ptr, ptr %4, align 8, !tbaa !204
  %18 = call noundef ptr @_ZL12GetTestStatePK6ssl_st(ptr noundef %17)
  store ptr %18, ptr %7, align 8, !tbaa !155
  %19 = load ptr, ptr %7, align 8, !tbaa !155
  %20 = getelementptr inbounds nuw %struct.TestState, ptr %19, i32 0, i32 2
  %21 = getelementptr inbounds nuw %struct.timeval, ptr %20, i32 0, i32 1
  %22 = load i64, ptr %21, align 8, !tbaa !439
  %23 = icmp ne i64 %22, 0
  br i1 %23, label %30, label %24

24:                                               ; preds = %14
  %25 = load ptr, ptr %7, align 8, !tbaa !155
  %26 = getelementptr inbounds nuw %struct.TestState, ptr %25, i32 0, i32 2
  %27 = getelementptr inbounds nuw %struct.timeval, ptr %26, i32 0, i32 0
  %28 = load i64, ptr %27, align 8, !tbaa !440
  %29 = icmp ne i64 %28, 0
  br i1 %29, label %30, label %93

30:                                               ; preds = %24, %14
  %31 = load ptr, ptr %7, align 8, !tbaa !155
  %32 = getelementptr inbounds nuw %struct.TestState, ptr %31, i32 0, i32 2
  %33 = getelementptr inbounds nuw %struct.timeval, ptr %32, i32 0, i32 1
  %34 = load i64, ptr %33, align 8, !tbaa !439
  %35 = load ptr, ptr %7, align 8, !tbaa !155
  %36 = getelementptr inbounds nuw %struct.TestState, ptr %35, i32 0, i32 1
  %37 = getelementptr inbounds nuw %struct.timeval, ptr %36, i32 0, i32 1
  %38 = load i64, ptr %37, align 8, !tbaa !441
  %39 = add nsw i64 %38, %34
  store i64 %39, ptr %37, align 8, !tbaa !441
  %40 = load ptr, ptr %7, align 8, !tbaa !155
  %41 = getelementptr inbounds nuw %struct.TestState, ptr %40, i32 0, i32 1
  %42 = getelementptr inbounds nuw %struct.timeval, ptr %41, i32 0, i32 1
  %43 = load i64, ptr %42, align 8, !tbaa !441
  %44 = sdiv i64 %43, 1000000
  %45 = load ptr, ptr %7, align 8, !tbaa !155
  %46 = getelementptr inbounds nuw %struct.TestState, ptr %45, i32 0, i32 1
  %47 = getelementptr inbounds nuw %struct.timeval, ptr %46, i32 0, i32 0
  %48 = load i64, ptr %47, align 8, !tbaa !442
  %49 = add nsw i64 %48, %44
  store i64 %49, ptr %47, align 8, !tbaa !442
  %50 = load ptr, ptr %7, align 8, !tbaa !155
  %51 = getelementptr inbounds nuw %struct.TestState, ptr %50, i32 0, i32 1
  %52 = getelementptr inbounds nuw %struct.timeval, ptr %51, i32 0, i32 1
  %53 = load i64, ptr %52, align 8, !tbaa !441
  %54 = srem i64 %53, 1000000
  store i64 %54, ptr %52, align 8, !tbaa !441
  %55 = load ptr, ptr %7, align 8, !tbaa !155
  %56 = getelementptr inbounds nuw %struct.TestState, ptr %55, i32 0, i32 2
  %57 = getelementptr inbounds nuw %struct.timeval, ptr %56, i32 0, i32 0
  %58 = load i64, ptr %57, align 8, !tbaa !440
  %59 = load ptr, ptr %7, align 8, !tbaa !155
  %60 = getelementptr inbounds nuw %struct.TestState, ptr %59, i32 0, i32 1
  %61 = getelementptr inbounds nuw %struct.timeval, ptr %60, i32 0, i32 0
  %62 = load i64, ptr %61, align 8, !tbaa !442
  %63 = add nsw i64 %62, %58
  store i64 %63, ptr %61, align 8, !tbaa !442
  %64 = load ptr, ptr %7, align 8, !tbaa !155
  %65 = getelementptr inbounds nuw %struct.TestState, ptr %64, i32 0, i32 2
  call void @llvm.memset.p0.i64(ptr align 8 %65, i8 0, i64 16, i1 false)
  %66 = load ptr, ptr %6, align 8, !tbaa !29
  %67 = getelementptr inbounds nuw %struct.TestConfig, ptr %66, i32 0, i32 17
  %68 = load i8, ptr %67, align 8, !tbaa !37, !range !23, !noundef !24
  %69 = trunc i8 %68 to i1
  br i1 %69, label %70, label %74

70:                                               ; preds = %30
  %71 = load ptr, ptr %7, align 8, !tbaa !155
  %72 = getelementptr inbounds nuw %struct.TestState, ptr %71, i32 0, i32 0
  %73 = load ptr, ptr %72, align 8, !tbaa !121
  call void @_Z25AsyncBioEnforceWriteQuotaP6bio_stb(ptr noundef %73, i1 noundef zeroext false)
  br label %74

74:                                               ; preds = %70, %30
  call void @llvm.lifetime.start.p0(i64 4, ptr %8) #18
  %75 = load ptr, ptr %4, align 8, !tbaa !204
  %76 = call i32 @DTLSv1_handle_timeout(ptr noundef %75)
  store i32 %76, ptr %8, align 4, !tbaa !6
  %77 = load ptr, ptr %6, align 8, !tbaa !29
  %78 = getelementptr inbounds nuw %struct.TestConfig, ptr %77, i32 0, i32 17
  %79 = load i8, ptr %78, align 8, !tbaa !37, !range !23, !noundef !24
  %80 = trunc i8 %79 to i1
  br i1 %80, label %81, label %85

81:                                               ; preds = %74
  %82 = load ptr, ptr %7, align 8, !tbaa !155
  %83 = getelementptr inbounds nuw %struct.TestState, ptr %82, i32 0, i32 0
  %84 = load ptr, ptr %83, align 8, !tbaa !121
  call void @_Z25AsyncBioEnforceWriteQuotaP6bio_stb(ptr noundef %84, i1 noundef zeroext true)
  br label %85

85:                                               ; preds = %81, %74
  %86 = load i32, ptr %8, align 4, !tbaa !6
  %87 = icmp slt i32 %86, 0
  br i1 %87, label %88, label %91

88:                                               ; preds = %85
  %89 = load ptr, ptr @stderr, align 8, !tbaa !15
  %90 = call i32 (ptr, ptr, ...) @fprintf(ptr noundef %89, ptr noundef @.str.41) #18
  store i1 false, ptr %3, align 1
  store i32 1, ptr %9, align 4
  br label %92

91:                                               ; preds = %85
  store i1 true, ptr %3, align 1
  store i32 1, ptr %9, align 4
  br label %92

92:                                               ; preds = %91, %88
  call void @llvm.lifetime.end.p0(i64 4, ptr %8) #18
  br label %134

93:                                               ; preds = %24
  %94 = load ptr, ptr %4, align 8, !tbaa !204
  %95 = load i32, ptr %5, align 4, !tbaa !6
  %96 = call i32 @SSL_get_error(ptr noundef %94, i32 noundef %95)
  switch i32 %96, label %133 [
    i32 2, label %97
    i32 3, label %101
    i32 9, label %105
    i32 4, label %116
    i32 11, label %119
    i32 12, label %125
    i32 13, label %128
  ]

97:                                               ; preds = %93
  %98 = load ptr, ptr %7, align 8, !tbaa !155
  %99 = getelementptr inbounds nuw %struct.TestState, ptr %98, i32 0, i32 0
  %100 = load ptr, ptr %99, align 8, !tbaa !121
  call void @_Z17AsyncBioAllowReadP6bio_stm(ptr noundef %100, i64 noundef 1)
  store i1 true, ptr %3, align 1
  store i32 1, ptr %9, align 4
  br label %134

101:                                              ; preds = %93
  %102 = load ptr, ptr %7, align 8, !tbaa !155
  %103 = getelementptr inbounds nuw %struct.TestState, ptr %102, i32 0, i32 0
  %104 = load ptr, ptr %103, align 8, !tbaa !121
  call void @_Z18AsyncBioAllowWriteP6bio_stm(ptr noundef %104, i64 noundef 1)
  store i1 true, ptr %3, align 1
  store i32 1, ptr %9, align 4
  br label %134

105:                                              ; preds = %93
  call void @llvm.lifetime.start.p0(i64 8, ptr %10) #18
  %106 = load ptr, ptr %4, align 8, !tbaa !204
  %107 = call noundef ptr @_ZL12GetConfigPtrPK6ssl_st(ptr noundef %106)
  %108 = getelementptr inbounds nuw %struct.TestConfig, ptr %107, i32 0, i32 26
  call void @_ZL14LoadPrivateKeyRKNSt7__cxx1112basic_stringIcSt11char_traitsIcESaIcEEE(ptr dead_on_unwind writable sret(%"class.std::unique_ptr.10") align 8 %10, ptr noundef nonnull align 8 dereferenceable(32) %108)
  %109 = call noundef zeroext i1 @_ZNKSt10unique_ptrI11evp_pkey_st14OpenSSLDeleterIS0_XadL_Z13EVP_PKEY_freeEEEEcvbEv(ptr noundef nonnull align 8 dereferenceable(8) %10) #18
  br i1 %109, label %111, label %110

110:                                              ; preds = %105
  store i1 false, ptr %3, align 1
  store i32 1, ptr %9, align 4
  br label %115

111:                                              ; preds = %105
  %112 = load ptr, ptr %7, align 8, !tbaa !155
  %113 = getelementptr inbounds nuw %struct.TestState, ptr %112, i32 0, i32 3
  %114 = call noundef nonnull align 8 dereferenceable(8) ptr @_ZNSt10unique_ptrI11evp_pkey_st14OpenSSLDeleterIS0_XadL_Z13EVP_PKEY_freeEEEEaSEOS3_(ptr noundef nonnull align 8 dereferenceable(8) %113, ptr noundef nonnull align 8 dereferenceable(8) %10) #18
  store i1 true, ptr %3, align 1
  store i32 1, ptr %9, align 4
  br label %115

115:                                              ; preds = %111, %110
  call void @_ZNSt10unique_ptrI11evp_pkey_st14OpenSSLDeleterIS0_XadL_Z13EVP_PKEY_freeEEEED2Ev(ptr noundef nonnull align 8 dereferenceable(8) %10) #18
  call void @llvm.lifetime.end.p0(i64 8, ptr %10) #18
  br label %134

116:                                              ; preds = %93
  %117 = load ptr, ptr %7, align 8, !tbaa !155
  %118 = getelementptr inbounds nuw %struct.TestState, ptr %117, i32 0, i32 4
  store i8 1, ptr %118, align 8, !tbaa !215
  store i1 true, ptr %3, align 1
  store i32 1, ptr %9, align 4
  br label %134

119:                                              ; preds = %93
  %120 = load ptr, ptr %7, align 8, !tbaa !155
  %121 = getelementptr inbounds nuw %struct.TestState, ptr %120, i32 0, i32 7
  %122 = load ptr, ptr %7, align 8, !tbaa !155
  %123 = getelementptr inbounds nuw %struct.TestState, ptr %122, i32 0, i32 6
  %124 = call noundef nonnull align 8 dereferenceable(8) ptr @_ZNSt10unique_ptrI14ssl_session_st14OpenSSLDeleterIS0_XadL_Z16SSL_SESSION_freeEEEEaSEOS3_(ptr noundef nonnull align 8 dereferenceable(8) %123, ptr noundef nonnull align 8 dereferenceable(8) %121) #18
  store i1 true, ptr %3, align 1
  store i32 1, ptr %9, align 4
  br label %134

125:                                              ; preds = %93
  %126 = load ptr, ptr %4, align 8, !tbaa !204
  %127 = call noundef zeroext i1 @_ZL18InstallCertificateP6ssl_st(ptr noundef %126)
  store i1 %127, ptr %3, align 1
  store i32 1, ptr %9, align 4
  br label %134

128:                                              ; preds = %93
  %129 = load ptr, ptr %7, align 8, !tbaa !155
  %130 = getelementptr inbounds nuw %struct.TestState, ptr %129, i32 0, i32 13
  %131 = load i32, ptr %130, align 8, !tbaa !383
  %132 = add i32 %131, 1
  store i32 %132, ptr %130, align 8, !tbaa !383
  store i1 true, ptr %3, align 1
  store i32 1, ptr %9, align 4
  br label %134

133:                                              ; preds = %93
  store i1 false, ptr %3, align 1
  store i32 1, ptr %9, align 4
  br label %134

134:                                              ; preds = %133, %128, %125, %119, %116, %115, %101, %97, %92
  call void @llvm.lifetime.end.p0(i64 8, ptr %7) #18
  call void @llvm.lifetime.end.p0(i64 8, ptr %6) #18
  br label %135

135:                                              ; preds = %134, %13
  %136 = load i1, ptr %3, align 1
  ret i1 %136
}