; Function Attrs: mustprogress norecurse uwtable
define internal fastcc noundef zeroext i1 @_ZL10RetryAsyncP6ssl_sti(ptr noundef %0, i32 noundef %1) unnamed_addr #0 {
  %3 = alloca %"class.std::unique_ptr.10", align 8
  %4 = icmp sgt i32 %1, -1
  br i1 %4, label %67, label %5

5:                                                ; preds = %2
  %6 = load i32, ptr @_ZL14g_config_index, align 4, !tbaa !6
  %7 = tail call noundef ptr @SSL_get_ex_data(ptr noundef %0, i32 noundef %6)
  %8 = load i32, ptr @_ZL13g_state_index, align 4, !tbaa !6
  %9 = tail call noundef ptr @SSL_get_ex_data(ptr noundef %0, i32 noundef %8)
  %10 = getelementptr inbounds nuw i8, ptr %9, i64 24
  %11 = getelementptr inbounds nuw i8, ptr %9, i64 32
  %12 = load i64, ptr %11, align 8, !tbaa !189
  %.not = icmp eq i64 %12, 0
  %.pre = load i64, ptr %10, align 8, !tbaa !190
  %.not31 = icmp eq i64 %.pre, 0
  %or.cond = select i1 %.not, i1 %.not31, i1 false
  br i1 %or.cond, label %39, label %13

13:                                               ; preds = %5
  %14 = getelementptr inbounds nuw i8, ptr %9, i64 8
  %15 = getelementptr inbounds nuw i8, ptr %9, i64 16
  %16 = load i64, ptr %15, align 8, !tbaa !191
  %17 = add nsw i64 %16, %12
  %18 = sdiv i64 %17, 1000000
  %19 = load i64, ptr %14, align 8, !tbaa !192
  %20 = add nsw i64 %19, %18
  %21 = srem i64 %17, 1000000
  store i64 %21, ptr %15, align 8, !tbaa !191
  %22 = add nsw i64 %.pre, %20
  store i64 %22, ptr %14, align 8, !tbaa !192
  tail call void @llvm.memset.p0.i64(ptr noundef nonnull align 8 dereferenceable(16) %10, i8 0, i64 16, i1 false)
  %23 = getelementptr inbounds nuw i8, ptr %7, i64 280
  %24 = load i8, ptr %23, align 8, !tbaa !57, !range !39, !noundef !40
  %25 = trunc nuw i8 %24 to i1
  br i1 %25, label %26, label %28

26:                                               ; preds = %13
  %27 = load ptr, ptr %9, align 8, !tbaa !118
  tail call void @_Z25AsyncBioEnforceWriteQuotaP6bio_stb(ptr noundef %27, i1 noundef zeroext false)
  br label %28

28:                                               ; preds = %26, %13
  %29 = tail call i32 @DTLSv1_handle_timeout(ptr noundef %0)
  %30 = load i8, ptr %23, align 8, !tbaa !57, !range !39, !noundef !40
  %31 = trunc nuw i8 %30 to i1
  br i1 %31, label %32, label %34

32:                                               ; preds = %28
  %33 = load ptr, ptr %9, align 8, !tbaa !118
  tail call void @_Z25AsyncBioEnforceWriteQuotaP6bio_stb(ptr noundef %33, i1 noundef zeroext true)
  br label %34

34:                                               ; preds = %32, %28
  %35 = icmp sgt i32 %29, -1
  br i1 %35, label %67, label %36

36:                                               ; preds = %34
  %37 = load ptr, ptr @stderr, align 8, !tbaa !33
  %38 = tail call i64 @fwrite(ptr nonnull @.str.41, i64 22, i64 1, ptr %37) #32
  br label %67

39:                                               ; preds = %5
  %40 = tail call i32 @SSL_get_error(ptr noundef %0, i32 noundef %1)
  switch i32 %40, label %67 [
    i32 2, label %41
    i32 3, label %43
    i32 9, label %45
    i32 4, label %55
    i32 11, label %57
    i32 12, label %61
    i32 13, label %63
  ]

41:                                               ; preds = %39
  %42 = load ptr, ptr %9, align 8, !tbaa !118
  tail call void @_Z17AsyncBioAllowReadP6bio_stm(ptr noundef %42, i64 noundef 1)
  br label %67

43:                                               ; preds = %39
  %44 = load ptr, ptr %9, align 8, !tbaa !118
  tail call void @_Z18AsyncBioAllowWriteP6bio_stm(ptr noundef %44, i64 noundef 1)
  br label %67

45:                                               ; preds = %39
  call void @llvm.lifetime.start.p0(i64 8, ptr nonnull %3) #28
  %46 = load i32, ptr @_ZL14g_config_index, align 4, !tbaa !6
  %47 = tail call noundef ptr @SSL_get_ex_data(ptr noundef %0, i32 noundef %46)
  %48 = getelementptr inbounds nuw i8, ptr %47, i64 320
  call fastcc void @_ZL14LoadPrivateKeyRKNSt7__cxx1112basic_stringIcSt11char_traitsIcESaIcEEE(ptr dead_on_unwind noalias writable align 8 %3, ptr noundef nonnull align 8 dereferenceable(32) %48)
  %49 = load ptr, ptr %3, align 8, !tbaa !97
  %50 = icmp ne ptr %49, null
  br i1 %50, label %51, label %54

51:                                               ; preds = %45
  %52 = getelementptr inbounds nuw i8, ptr %9, i64 40
  %53 = call noundef nonnull align 8 dereferenceable(8) ptr @_ZNSt10unique_ptrI11evp_pkey_st14OpenSSLDeleterIS0_XadL_Z13EVP_PKEY_freeEEEEaSEOS3_(ptr noundef nonnull align 8 dereferenceable(8) %52, ptr noundef nonnull align 8 dereferenceable(8) %3) #28
  br label %54

54:                                               ; preds = %45, %51
  call void @_ZNSt10unique_ptrI11evp_pkey_st14OpenSSLDeleterIS0_XadL_Z13EVP_PKEY_freeEEEED2Ev(ptr noundef nonnull align 8 dereferenceable(8) %3) #28
  call void @llvm.lifetime.end.p0(i64 8, ptr nonnull %3) #28
  br label %67

55:                                               ; preds = %39
  %56 = getelementptr inbounds nuw i8, ptr %9, i64 48
  store i8 1, ptr %56, align 8, !tbaa !155
  br label %67

57:                                               ; preds = %39
  %58 = getelementptr inbounds nuw i8, ptr %9, i64 64
  %59 = getelementptr inbounds nuw i8, ptr %9, i64 56
  %60 = tail call noundef nonnull align 8 dereferenceable(8) ptr @_ZNSt10unique_ptrI14ssl_session_st14OpenSSLDeleterIS0_XadL_Z16SSL_SESSION_freeEEEEaSEOS3_(ptr noundef nonnull align 8 dereferenceable(8) %59, ptr noundef nonnull align 8 dereferenceable(8) %58) #28
  br label %67

61:                                               ; preds = %39
  %62 = tail call fastcc noundef zeroext i1 @_ZL18InstallCertificateP6ssl_st(ptr noundef %0)
  br label %67

63:                                               ; preds = %39
  %64 = getelementptr inbounds nuw i8, ptr %9, i64 112
  %65 = load i32, ptr %64, align 8, !tbaa !185
  %66 = add i32 %65, 1
  store i32 %66, ptr %64, align 8, !tbaa !185
  br label %67

67:                                               ; preds = %41, %43, %54, %55, %57, %61, %63, %34, %36, %39, %2
  %.0 = phi i1 [ false, %2 ], [ true, %63 ], [ %62, %61 ], [ true, %57 ], [ true, %55 ], [ %50, %54 ], [ true, %43 ], [ true, %41 ], [ true, %34 ], [ false, %36 ], [ false, %39 ]
  ret i1 %.0
}